; Function Attrs: null_pointer_is_valid sspstrong uwtable
define internal fastcc i32 @dissect_FurnishChargingInformationSMSArg_PDU(ptr noundef %0, ptr noundef %1, ptr noundef %2) unnamed_addr #0 {
  %4 = alloca ptr, align 8
  %5 = alloca %struct._asn1_ctx_t, align 8
  call void @llvm.lifetime.start.p0(i64 208, ptr nonnull %5) #12
  call void @asn1_ctx_init(ptr noundef nonnull %5, i32 noundef 0, i1 noundef zeroext true, ptr noundef %1)
  %6 = load i32, ptr @hf_camel_FurnishChargingInformationSMSArg_PDU, align 4
  call void @llvm.lifetime.start.p0(i64 8, ptr nonnull %4) #12
  %7 = call i32 @dissect_ber_octet_string(i1 noundef zeroext false, ptr noundef nonnull %5, ptr noundef %2, ptr noundef %0, i32 noundef 0, i32 noundef %6, ptr noundef nonnull %4)
  %8 = load ptr, ptr %4, align 8
  %.not.i.i = icmp eq ptr %8, null
  br i1 %.not.i.i, label %dissect_camel_FurnishChargingInformationSMSArg.exit, label %9

9:                                                ; preds = %3
  %10 = getelementptr inbounds nuw i8, ptr %5, i64 24
  %11 = load ptr, ptr %10, align 8
  %12 = load i32, ptr @ett_camel_CAMEL_FCISMSBillingChargingCharacteristics, align 4
  %13 = call ptr @proto_item_add_subtree(ptr noundef %11, i32 noundef %12)
  %14 = load ptr, ptr %4, align 8
  %15 = load i32, ptr @hf_camel_CAMEL_FCISMSBillingChargingCharacteristics, align 4
  %16 = load i32, ptr @ett_camel_CAMEL_FCISMSBillingChargingCharacteristics, align 4
  %17 = call i32 @dissect_ber_choice(ptr noundef nonnull %5, ptr noundef %13, ptr noundef %14, i32 noundef 0, ptr noundef nonnull @CAMEL_FCISMSBillingChargingCharacteristics_choice, i32 noundef %15, i32 noundef %16, ptr noundef null)
  br label %dissect_camel_FurnishChargingInformationSMSArg.exit

dissect_camel_FurnishChargingInformationSMSArg.exit: ; preds = %3, %9
  call void @llvm.lifetime.end.p0(i64 8, ptr nonnull %4) #12
  call void @llvm.lifetime.end.p0(i64 208, ptr nonnull %5) #12
  ret i32 %7
}